target datalayout = "e-m:e-p270:32:32-p271:32:32-p272:64:64-i64:64-i128:128-f80:128-n8:16:32:64-S128"
target triple = "x86_64-pc-linux-gnu"

%struct.ident_t = type { i32, i32, i32, i32, ptr }
%"class.ncnn::Mat" = type { ptr, ptr, i64, i32, ptr, i32, i32, i32, i32, i32, i64 }
%"class.ncnn::Option" = type { i8, i32, ptr, ptr, i32, i8, i8, i8, i8, i8, i8, i8, i8, i8, i8, i8, i8, i8, i8, i8, i8, i8, i8, i8, i8, i32, i8, i8, i8, i8, i8, i8, i8, i8, i8, i8, i8, i8 }

@2 = private unnamed_addr constant %struct.ident_t { i32 0, i32 2, i32 0, i32 22, ptr @0 }, align 8

; Function Attrs: alwaysinline mustprogress nounwind uwtable
define linkonce_odr hidden noundef ptr @_ZNK4ncnn3MatcvPKT_IfEEv(ptr noundef nonnull align 8 dereferenceable(72) %0) #5 comdat align 2 {
  %2 = alloca ptr, align 8
  store ptr %0, ptr %2, align 8, !tbaa !73
  %3 = load ptr, ptr %2, align 8
  %4 = getelementptr inbounds nuw %"class.ncnn::Mat", ptr %3, i32 0, i32 0
  %5 = load ptr, ptr %4, align 8, !tbaa !106
  ret ptr %5
}

; Function Attrs: mustprogress nounwind uwtable
define internal void @_ZN4ncnnL22conv3x3s1_pack1to4_sseERKNS_3MatERS0_S2_S2_RKNS_6OptionE(ptr noundef nonnull align 8 dereferenceable(72) %0, ptr noundef nonnull align 8 dereferenceable(72) %1, ptr noundef nonnull align 8 dereferenceable(72) %2, ptr noundef nonnull align 8 dereferenceable(72) %3, ptr noundef nonnull align 8 dereferenceable(64) %4) #12 {
  %6 = alloca ptr, align 8
  %7 = alloca ptr, align 8
  %8 = alloca ptr, align 8
  %9 = alloca ptr, align 8
  %10 = alloca ptr, align 8
  %11 = alloca i32, align 4
  %12 = alloca i32, align 4
  %13 = alloca i32, align 4
  %14 = alloca i32, align 4
  %15 = alloca ptr, align 8
  %16 = alloca i32, align 4
  %17 = alloca i32, align 4
  %18 = call i32 @__kmpc_global_thread_num(ptr @2)
  store ptr %0, ptr %6, align 8, !tbaa !73
  store ptr %1, ptr %7, align 8, !tbaa !73
  store ptr %2, ptr %8, align 8, !tbaa !73
  store ptr %3, ptr %9, align 8, !tbaa !73
  store ptr %4, ptr %10, align 8, !tbaa !11
  call void @llvm.lifetime.start.p0(i64 4, ptr %11) #14
  %19 = load ptr, ptr %6, align 8, !tbaa !73
  %20 = getelementptr inbounds nuw %"class.ncnn::Mat", ptr %19, i32 0, i32 9
  %21 = load i32, ptr %20, align 8, !tbaa !74
  store i32 %21, ptr %11, align 4, !tbaa !48
  call void @llvm.lifetime.start.p0(i64 4, ptr %12) #14
  %22 = load ptr, ptr %7, align 8, !tbaa !73
  %23 = getelementptr inbounds nuw %"class.ncnn::Mat", ptr %22, i32 0, i32 6
  %24 = load i32, ptr %23, align 4, !tbaa !64
  store i32 %24, ptr %12, align 4, !tbaa !48
  call void @llvm.lifetime.start.p0(i64 4, ptr %13) #14
  %25 = load ptr, ptr %7, align 8, !tbaa !73
  %26 = getelementptr inbounds nuw %"class.ncnn::Mat", ptr %25, i32 0, i32 7
  %27 = load i32, ptr %26, align 8, !tbaa !65
  store i32 %27, ptr %13, align 4, !tbaa !48
  call void @llvm.lifetime.start.p0(i64 4, ptr %14) #14
  %28 = load ptr, ptr %7, align 8, !tbaa !73
  %29 = getelementptr inbounds nuw %"class.ncnn::Mat", ptr %28, i32 0, i32 9
  %30 = load i32, ptr %29, align 8, !tbaa !74
  store i32 %30, ptr %14, align 4, !tbaa !48
  call void @llvm.lifetime.start.p0(i64 8, ptr %15) #14
  %31 = load ptr, ptr %9, align 8, !tbaa !73
  %32 = call noundef ptr @_ZNK4ncnn3MatcvPKT_IfEEv(ptr noundef nonnull align 8 dereferenceable(72) %31)
  store ptr %32, ptr %15, align 8, !tbaa !87
  call void @llvm.lifetime.start.p0(i64 4, ptr %16) #14
  %33 = load i32, ptr %14, align 4, !tbaa !48
  %34 = ashr i32 %33, 1
  store i32 %34, ptr %16, align 4, !tbaa !48
  call void @llvm.lifetime.start.p0(i64 4, ptr %17) #14
  %35 = load i32, ptr %16, align 4, !tbaa !48
  %36 = shl i32 %35, 1
  store i32 %36, ptr %17, align 4, !tbaa !48
  %37 = load ptr, ptr %10, align 8, !tbaa !11
  %38 = getelementptr inbounds nuw %"class.ncnn::Option", ptr %37, i32 0, i32 1
  %39 = load i32, ptr %38, align 4, !tbaa !39
  call void @__kmpc_push_num_threads(ptr @2, i32 %18, i32 %39)
  %40 = load ptr, ptr %7, align 8, !tbaa !73
  %41 = load ptr, ptr %8, align 8, !tbaa !73
  %42 = load ptr, ptr %6, align 8, !tbaa !73
  call void (ptr, i32, ptr, ...) @__kmpc_fork_call(ptr @2, i32 8, ptr @_ZN4ncnnL22conv3x3s1_pack1to4_sseERKNS_3MatERS0_S2_S2_RKNS_6OptionE.omp_outlined, ptr %16, ptr %40, ptr %15, ptr %41, ptr %11, ptr %42, ptr %13, ptr %12)
  %43 = load ptr, ptr %10, align 8, !tbaa !11
  %44 = getelementptr inbounds nuw %"class.ncnn::Option", ptr %43, i32 0, i32 1
  %45 = load i32, ptr %44, align 4, !tbaa !39
  call void @__kmpc_push_num_threads(ptr @2, i32 %18, i32 %45)
  %46 = load ptr, ptr %7, align 8, !tbaa !73
  %47 = load ptr, ptr %8, align 8, !tbaa !73
  %48 = load ptr, ptr %6, align 8, !tbaa !73
  call void (ptr, i32, ptr, ...) @__kmpc_fork_call(ptr @2, i32 9, ptr @_ZN4ncnnL22conv3x3s1_pack1to4_sseERKNS_3MatERS0_S2_S2_RKNS_6OptionE.omp_outlined.9, ptr %14, ptr %17, ptr %46, ptr %15, ptr %47, ptr %11, ptr %48, ptr %13, ptr %12)
  call void @llvm.lifetime.end.p0(i64 4, ptr %17) #14
  call void @llvm.lifetime.end.p0(i64 4, ptr %16) #14
  call void @llvm.lifetime.end.p0(i64 8, ptr %15) #14
  call void @llvm.lifetime.end.p0(i64 4, ptr %14) #14
  call void @llvm.lifetime.end.p0(i64 4, ptr %13) #14
  call void @llvm.lifetime.end.p0(i64 4, ptr %12) #14
  call void @llvm.lifetime.end.p0(i64 4, ptr %11) #14
  ret void
}